target datalayout = "e-m:e-p270:32:32-p271:32:32-p272:64:64-i64:64-i128:128-f80:128-n8:16:32:64-S128"
target triple = "x86_64-pc-linux-gnu"

%"class.icu_77::MaybeStackArray" = type <{ ptr, i32, i8, [40 x i8], [3 x i8] }>
%"class.icu_77::UObject" = type { ptr }
%"class.icu_77::UnicodeString" = type { %"class.icu_77::Replaceable", %"union.icu_77::UnicodeString::StackBufferOrFields" }
%"class.icu_77::Replaceable" = type { %"class.icu_77::UObject" }
%"union.icu_77::UnicodeString::StackBufferOrFields" = type { %struct.anon.2, [32 x i8] }
%struct.anon.2 = type { i16, i32, i32, ptr }
%"class.icu_77::numparse::impl::IgnorablesMatcher" = type { %"class.icu_77::numparse::impl::SymbolMatcher" }
%"class.icu_77::numparse::impl::SymbolMatcher" = type { %"class.icu_77::numparse::impl::NumberParseMatcher", %"class.icu_77::UnicodeString", ptr }
%"class.icu_77::numparse::impl::NumberParseMatcher" = type { ptr }
%"class.icu_77::CharString" = type { %"class.icu_77::MaybeStackArray", i32, [4 x i8] }
%"class.icu_77::numparse::impl::AffixTokenMatcherWarehouse" = type { ptr, %"class.icu_77::numparse::impl::MinusSignMatcher", %"class.icu_77::numparse::impl::PlusSignMatcher", %"class.icu_77::numparse::impl::PercentMatcher", %"class.icu_77::numparse::impl::PermilleMatcher", %"class.icu_77::numparse::impl::CombinedCurrencyMatcher", %"class.icu_77::MemoryPool" }
%"class.icu_77::numparse::impl::MinusSignMatcher" = type <{ %"class.icu_77::numparse::impl::SymbolMatcher", i8, [7 x i8] }>
%"class.icu_77::numparse::impl::PlusSignMatcher" = type <{ %"class.icu_77::numparse::impl::SymbolMatcher", i8, [7 x i8] }>
%"class.icu_77::numparse::impl::PercentMatcher" = type { %"class.icu_77::numparse::impl::SymbolMatcher" }
%"class.icu_77::numparse::impl::PermilleMatcher" = type { %"class.icu_77::numparse::impl::SymbolMatcher" }
%"class.icu_77::numparse::impl::CombinedCurrencyMatcher" = type { %"class.icu_77::numparse::impl::NumberParseMatcher", [4 x i16], %"class.icu_77::UnicodeString", %"class.icu_77::UnicodeString", i8, [8 x %"class.icu_77::UnicodeString"], %"class.icu_77::UnicodeString", %"class.icu_77::UnicodeString", %"class.icu_77::CharString" }
%"class.icu_77::MemoryPool" = type { i32, %"class.icu_77::MaybeStackArray.9" }
%"class.icu_77::MaybeStackArray.9" = type { ptr, i32, i8, [8 x ptr] }
%"class.icu_77::numparse::impl::AffixMatcherWarehouse" = type { [18 x %"class.icu_77::numparse::impl::AffixMatcher"], [12 x %"class.icu_77::numparse::impl::AffixPatternMatcher"], ptr }
%"class.icu_77::numparse::impl::AffixMatcher" = type <{ %"class.icu_77::numparse::impl::NumberParseMatcher", ptr, ptr, i32, [4 x i8] }>
%"class.icu_77::numparse::impl::AffixPatternMatcher" = type { %"class.icu_77::numparse::impl::ArraySeriesMatcher.base", [4 x i8], %"class.icu_77::numparse::impl::CompactUnicodeString" }
%"class.icu_77::numparse::impl::ArraySeriesMatcher.base" = type <{ %"class.icu_77::numparse::impl::SeriesMatcher", %"class.icu_77::MaybeStackArray.6", i32 }>
%"class.icu_77::numparse::impl::SeriesMatcher" = type { %"class.icu_77::numparse::impl::CompositionMatcher" }
%"class.icu_77::numparse::impl::CompositionMatcher" = type { %"class.icu_77::numparse::impl::NumberParseMatcher" }
%"class.icu_77::MaybeStackArray.6" = type { ptr, i32, i8, [3 x ptr] }
%"class.icu_77::numparse::impl::CompactUnicodeString" = type { %"class.icu_77::MaybeStackArray.7" }
%"class.icu_77::MaybeStackArray.7" = type <{ ptr, i32, i8, i8, [4 x i16], [2 x i8] }>
%"class.icu_77::numparse::impl::DecimalMatcher" = type { %"class.icu_77::numparse::impl::NumberParseMatcher", i8, i8, i8, i16, i16, %"class.icu_77::UnicodeString", %"class.icu_77::UnicodeString", ptr, ptr, ptr, ptr, %"class.icu_77::LocalPointer.3", %"class.icu_77::LocalPointer.3", %"class.icu_77::LocalArray" }
%"class.icu_77::LocalPointer.3" = type { %"class.icu_77::LocalPointerBase.4" }
%"class.icu_77::LocalPointerBase.4" = type { ptr }
%"class.icu_77::LocalArray" = type { %"class.icu_77::LocalPointerBase.5" }
%"class.icu_77::LocalPointerBase.5" = type { ptr }
%"class.icu_77::numparse::impl::NanMatcher" = type { %"class.icu_77::numparse::impl::SymbolMatcher" }
%"class.icu_77::numparse::impl::InfinityMatcher" = type { %"class.icu_77::numparse::impl::SymbolMatcher" }
%"class.icu_77::numparse::impl::PaddingMatcher" = type { %"class.icu_77::numparse::impl::SymbolMatcher" }
%"class.icu_77::numparse::impl::ScientificMatcher" = type { %"class.icu_77::numparse::impl::NumberParseMatcher", %"class.icu_77::UnicodeString", %"class.icu_77::numparse::impl::DecimalMatcher", %"class.icu_77::numparse::impl::IgnorablesMatcher", %"class.icu_77::UnicodeString", %"class.icu_77::UnicodeString" }
%"class.icu_77::numparse::impl::RequireNumberValidator" = type { %"class.icu_77::numparse::impl::ValidationMatcher" }
%"class.icu_77::numparse::impl::ValidationMatcher" = type { %"class.icu_77::numparse::impl::NumberParseMatcher" }
%"class.icu_77::numparse::impl::NumberParserImpl" = type { %"class.icu_77::numparse::impl::MutableMatcherCollection", i32, i32, %"class.icu_77::MaybeStackArray.0", i8, %struct.anon, %struct.anon.10 }
%"class.icu_77::numparse::impl::MutableMatcherCollection" = type { ptr }
%"class.icu_77::MaybeStackArray.0" = type { ptr, i32, i8, [10 x ptr] }
%struct.anon = type { %"class.icu_77::numparse::impl::IgnorablesMatcher", %"class.icu_77::numparse::impl::InfinityMatcher", %"class.icu_77::numparse::impl::MinusSignMatcher", %"class.icu_77::numparse::impl::NanMatcher", %"class.icu_77::numparse::impl::PaddingMatcher", %"class.icu_77::numparse::impl::PercentMatcher", %"class.icu_77::numparse::impl::PermilleMatcher", %"class.icu_77::numparse::impl::PlusSignMatcher", %"class.icu_77::numparse::impl::DecimalMatcher", %"class.icu_77::numparse::impl::ScientificMatcher", %"class.icu_77::numparse::impl::CombinedCurrencyMatcher", %"class.icu_77::numparse::impl::AffixMatcherWarehouse", %"class.icu_77::numparse::impl::AffixTokenMatcherWarehouse" }
%struct.anon.10 = type { %"class.icu_77::numparse::impl::RequireAffixValidator", %"class.icu_77::numparse::impl::RequireCurrencyValidator", %"class.icu_77::numparse::impl::RequireDecimalSeparatorValidator", %"class.icu_77::numparse::impl::RequireNumberValidator", %"class.icu_77::numparse::impl::MultiplierParseHandler" }
%"class.icu_77::numparse::impl::RequireAffixValidator" = type { %"class.icu_77::numparse::impl::ValidationMatcher" }
%"class.icu_77::numparse::impl::RequireCurrencyValidator" = type { %"class.icu_77::numparse::impl::ValidationMatcher" }
%"class.icu_77::numparse::impl::RequireDecimalSeparatorValidator" = type <{ %"class.icu_77::numparse::impl::ValidationMatcher", i8, [7 x i8] }>
%"class.icu_77::numparse::impl::MultiplierParseHandler" = type { %"class.icu_77::numparse::impl::ValidationMatcher", %"class.icu_77::number::Scale" }
%"class.icu_77::number::Scale" = type <{ i32, [4 x i8], ptr, i32, [4 x i8] }>

@_ZTVN6icu_778numparse4impl22MultiplierParseHandlerE = external unnamed_addr constant { [9 x ptr] }, align 8

; Function Attrs: mustprogress uwtable
define linkonce_odr void @_ZN6icu_7715MaybeStackArrayIPKNS_8numparse4impl18NumberParseMatcherELi10EE12releaseArrayEv(ptr noundef nonnull align 8 dereferenceable(96) %0) #1 comdat align 2 {
  %2 = alloca ptr, align 8
  store ptr %0, ptr %2, align 8, !tbaa !220
  %3 = load ptr, ptr %2, align 8
  %4 = getelementptr inbounds nuw %"class.icu_77::MaybeStackArray.0", ptr %3, i32 0, i32 2
  %5 = load i8, ptr %4, align 4, !tbaa !224
  %6 = icmp ne i8 %5, 0
  br i1 %6, label %7, label %10

7:                                                ; preds = %1
  %8 = getelementptr inbounds nuw %"class.icu_77::MaybeStackArray.0", ptr %3, i32 0, i32 0
  %9 = load ptr, ptr %8, align 8, !tbaa !222
  call void @uprv_free_77(ptr noundef %9)
  br label %10

10:                                               ; preds = %7, %1
  ret void
}

; Function Attrs: mustprogress nounwind uwtable
define void @_ZN6icu_778numparse4impl18NumberParseMatcherD2Ev(ptr noundef nonnull align 8 dereferenceable(8) %0) unnamed_addr #0 align 2 {
  %2 = alloca ptr, align 8
  store ptr %0, ptr %2, align 8, !tbaa !23
  ret void
}

; Function Attrs: inlinehint mustprogress nounwind uwtable
define linkonce_odr void @_ZN6icu_778numparse4impl22MultiplierParseHandlerD2Ev(ptr noundef nonnull align 8 dereferenceable(32) %0) unnamed_addr #2 comdat align 2 {
  %2 = alloca ptr, align 8
  store ptr %0, ptr %2, align 8, !tbaa !214
  %3 = load ptr, ptr %2, align 8
  store ptr getelementptr inbounds inrange(-16, 56) ({ [9 x ptr] }, ptr @_ZTVN6icu_778numparse4impl22MultiplierParseHandlerE, i32 0, i32 0, i32 2), ptr %3, align 8, !tbaa !37
  %4 = getelementptr inbounds nuw %"class.icu_77::numparse::impl::MultiplierParseHandler", ptr %3, i32 0, i32 1
  call void @_ZN6icu_776number5ScaleD1Ev(ptr noundef nonnull align 8 dereferenceable(20) %4) #13
  call void @_ZN6icu_778numparse4impl18NumberParseMatcherD2Ev(ptr noundef nonnull align 8 dereferenceable(8) %3) #13
  ret void
}

; Function Attrs: mustprogress nounwind uwtable
define linkonce_odr void @_ZN6icu_778numparse4impl24MutableMatcherCollectionD2Ev(ptr noundef nonnull align 8 dereferenceable(8) %0) unnamed_addr #0 comdat align 2 {
  %2 = alloca ptr, align 8
  store ptr %0, ptr %2, align 8, !tbaa !218
  ret void
}

; Function Attrs: mustprogress nounwind uwtable
define linkonce_odr void @_ZN6icu_7715MaybeStackArrayIPKNS_8numparse4impl18NumberParseMatcherELi10EED2Ev(ptr noundef nonnull align 8 dereferenceable(96) %0) unnamed_addr #0 comdat align 2 personality ptr @__gxx_personality_v0 {
  %2 = alloca ptr, align 8
  store ptr %0, ptr %2, align 8, !tbaa !220
  %3 = load ptr, ptr %2, align 8
  invoke void @_ZN6icu_7715MaybeStackArrayIPKNS_8numparse4impl18NumberParseMatcherELi10EE12releaseArrayEv(ptr noundef nonnull align 8 dereferenceable(96) %3)
          to label %4 unwind label %5

4:                                                ; preds = %1
  ret void

5:                                                ; preds = %1
  %6 = landingpad { ptr, i32 }
          catch ptr null
  %7 = extractvalue { ptr, i32 } %6, 0
  call void @__clang_call_terminate(ptr %7) #15
  unreachable
}

; Function Attrs: inlinehint mustprogress nounwind uwtable
define linkonce_odr void @_ZN6icu_778numparse4impl16NumberParserImplUt0_D2Ev(ptr noundef nonnull align 8 dereferenceable(72) %0) unnamed_addr #2 comdat align 2 {
  %2 = alloca ptr, align 8
  store ptr %0, ptr %2, align 8, !tbaa !22
  %3 = load ptr, ptr %2, align 8
  %4 = getelementptr inbounds nuw %struct.anon.10, ptr %3, i32 0, i32 4
  call void @_ZN6icu_778numparse4impl22MultiplierParseHandlerD2Ev(ptr noundef nonnull align 8 dereferenceable(32) %4) #13
  %5 = getelementptr inbounds nuw %struct.anon.10, ptr %3, i32 0, i32 3
  call void @_ZN6icu_778numparse4impl18NumberParseMatcherD2Ev(ptr noundef nonnull align 8 dereferenceable(8) %5) #13
  %6 = getelementptr inbounds nuw %struct.anon.10, ptr %3, i32 0, i32 2
  call void @_ZN6icu_778numparse4impl18NumberParseMatcherD2Ev(ptr noundef nonnull align 8 dereferenceable(9) %6) #13
  %7 = getelementptr inbounds nuw %struct.anon.10, ptr %3, i32 0, i32 1
  call void @_ZN6icu_778numparse4impl18NumberParseMatcherD2Ev(ptr noundef nonnull align 8 dereferenceable(8) %7) #13
  %8 = getelementptr inbounds nuw %struct.anon.10, ptr %3, i32 0, i32 0
  call void @_ZN6icu_778numparse4impl18NumberParseMatcherD2Ev(ptr noundef nonnull align 8 dereferenceable(8) %8) #13
  ret void
}

; Function Attrs: mustprogress nounwind uwtable
define void @_ZN6icu_778numparse4impl16NumberParserImplD2Ev(ptr noundef nonnull align 8 dereferenceable(5216) %0) unnamed_addr #0 align 2 {
  %2 = alloca ptr, align 8
  store ptr %0, ptr %2, align 8, !tbaa !41
  %3 = load ptr, ptr %2, align 8
  store ptr getelementptr inbounds inrange(-16, 24) ({ [5 x ptr] }, ptr @_ZTVN6icu_778numparse4impl16NumberParserImplE, i32 0, i32 0, i32 2), ptr %3, align 8, !tbaa !37
  %4 = getelementptr inbounds nuw %"class.icu_77::numparse::impl::NumberParserImpl", ptr %3, i32 0, i32 2
  store i32 0, ptr %4, align 4, !tbaa !217
  %5 = getelementptr inbounds nuw %"class.icu_77::numparse::impl::NumberParserImpl", ptr %3, i32 0, i32 6
  call void @_ZN6icu_778numparse4impl16NumberParserImplUt0_D2Ev(ptr noundef nonnull align 8 dereferenceable(72) %5) #13
  %6 = getelementptr inbounds nuw %"class.icu_77::numparse::impl::NumberParserImpl", ptr %3, i32 0, i32 5
  call void @_ZN6icu_778numparse4impl16NumberParserImplUt_D2Ev(ptr noundef nonnull align 8 dereferenceable(5024) %6) #13
  %7 = getelementptr inbounds nuw %"class.icu_77::numparse::impl::NumberParserImpl", ptr %3, i32 0, i32 3
  call void @_ZN6icu_7715MaybeStackArrayIPKNS_8numparse4impl18NumberParseMatcherELi10EED2Ev(ptr noundef nonnull align 8 dereferenceable(96) %7) #13
  call void @_ZN6icu_778numparse4impl24MutableMatcherCollectionD2Ev(ptr noundef nonnull align 8 dereferenceable(8) %3) #13
  ret void
}