; Function Attrs: mustprogress nounwind uwtable
define void @_ZN6icu_778numparse4impl16NumberParserImplD2Ev(ptr noundef nonnull align 8 dereferenceable(5216) initializes((0, 8), (12, 16), (5184, 5192)) %0) unnamed_addr #0 align 2 personality ptr @__gxx_personality_v0 {
  store ptr getelementptr inbounds nuw inrange(-16, 24) (i8, ptr @_ZTVN6icu_778numparse4impl16NumberParserImplE, i64 16), ptr %0, align 8, !tbaa !22
  %2 = getelementptr inbounds nuw i8, ptr %0, i64 12
  store i32 0, ptr %2, align 4, !tbaa !177
  %3 = getelementptr inbounds nuw i8, ptr %0, i64 5184
  store ptr getelementptr inbounds nuw inrange(-16, 56) (i8, ptr @_ZTVN6icu_778numparse4impl22MultiplierParseHandlerE, i64 16), ptr %3, align 8, !tbaa !22
  %4 = getelementptr inbounds nuw i8, ptr %0, i64 5192
  tail call void @_ZN6icu_776number5ScaleD1Ev(ptr noundef nonnull align 8 dereferenceable(20) %4) #19
  %5 = getelementptr inbounds nuw i8, ptr %0, i64 120
  tail call void @_ZN6icu_778numparse4impl16NumberParserImplUt_D2Ev(ptr noundef nonnull align 8 dereferenceable(5024) %5) #19
  %6 = getelementptr inbounds nuw i8, ptr %0, i64 28
  %7 = load i8, ptr %6, align 4, !tbaa !180
  %.not.i.i = icmp eq i8 %7, 0
  br i1 %.not.i.i, label %_ZN6icu_7715MaybeStackArrayIPKNS_8numparse4impl18NumberParseMatcherELi10EED2Ev.exit, label %8

8:                                                ; preds = %1
  %9 = getelementptr inbounds nuw i8, ptr %0, i64 16
  %10 = load ptr, ptr %9, align 8, !tbaa !178
  invoke void @uprv_free_77(ptr noundef %10)
          to label %_ZN6icu_7715MaybeStackArrayIPKNS_8numparse4impl18NumberParseMatcherELi10EED2Ev.exit unwind label %11

11:                                               ; preds = %8
  %12 = landingpad { ptr, i32 }
          catch ptr null
  %13 = extractvalue { ptr, i32 } %12, 0
  tail call void @__clang_call_terminate(ptr %13) #21
  unreachable

_ZN6icu_7715MaybeStackArrayIPKNS_8numparse4impl18NumberParseMatcherELi10EED2Ev.exit: ; preds = %1, %8
  ret void
}